(lp0
(lp1
S'Lovaroju - Vinge Hub'
p2
a(lp3
VGold=1
p4
aVSilver=2
p5
aVBronze=-2
p6
aVUranium=-3
p7
aaa(lp8
S'Lugh - Balandin Gateway'
p9
a(lp10
VGold=-3
p11
aVSilver=3
p12
aVBronze=0
p13
aVUranium=2
p14
aaa(lp15
S'Eravate - Ackerman Market'
p16
a(lp17
VGold=0
p18
aVSilver=3
p19
aVBronze=-3
p20
aVUranium=2
p21
aaa(lp22
S'Eravate - Cleve Hub'
p23
a(lp24
VGold=-2
p25
aVSilver=-2
p26
aVBronze=-2
p27
aVUranium=1
p28
aaa.