(lp0
(lp1
S'System 1 - Station A'
p2
a(lp3
VGold=0
p4
aVSilver=1
p5
aVBronze=-2
p6
aVUranium=-1
p7
aaa(lp8
S'System 5 - Station G'
p9
a(lp10
VGold=3
p11
aVSilver=0
p12
aVBronze=0
p13
aVUranium=0
p14
aaa(lp15
S'System 3 - Station 4'
p16
a(lp17
VGold=2
p18
aVSilver=0
p19
aVBronze=2
p20
aVUranium=2
p21
aaa(lp22
S'System 4 - Station 5'
p23
a(lp24
S'Gold=0'
p25
aS'Silver=0'
p26
aS'Bronze=0'
p27
aS'Uranium=0'
p28
aaa(lp29
S'System 6 - Station 7'
p30
a(lp31
VGold=0
p32
aVSilver=0
p33
aVBronze=3
p34
aVUranium=0
p35
aaa(lp36
S'System 5 - Station 6'
p37
ag24
aa.